target datalayout = "e-m:e-p270:32:32-p271:32:32-p272:64:64-i64:64-i128:128-f80:128-n8:16:32:64-S128"
target triple = "x86_64-pc-linux-gnu"

; Function Attrs: nounwind uwtable
define internal void @sbr_sum64x5_c(ptr noundef %0) #1 {
  %2 = alloca ptr, align 8
  %3 = alloca i32, align 4
  %4 = alloca i32, align 4
  store ptr %0, ptr %2, align 8, !tbaa !21
  call void @llvm.lifetime.start.p0(i64 4, ptr %3) #8
  store i32 0, ptr %3, align 4, !tbaa !23
  br label %5

5:                                                ; preds = %47, %1
  %6 = load i32, ptr %3, align 4, !tbaa !23
  %7 = icmp slt i32 %6, 64
  br i1 %7, label %8, label %50

8:                                                ; preds = %5
  call void @llvm.lifetime.start.p0(i64 4, ptr %4) #8
  %9 = load ptr, ptr %2, align 8, !tbaa !21
  %10 = load i32, ptr %3, align 4, !tbaa !23
  %11 = sext i32 %10 to i64
  %12 = getelementptr inbounds i32, ptr %9, i64 %11
  %13 = load i32, ptr %12, align 4, !tbaa !23
  %14 = load ptr, ptr %2, align 8, !tbaa !21
  %15 = load i32, ptr %3, align 4, !tbaa !23
  %16 = add nsw i32 %15, 64
  %17 = sext i32 %16 to i64
  %18 = getelementptr inbounds i32, ptr %14, i64 %17
  %19 = load i32, ptr %18, align 4, !tbaa !23
  %20 = add nsw i32 %13, %19
  %21 = load ptr, ptr %2, align 8, !tbaa !21
  %22 = load i32, ptr %3, align 4, !tbaa !23
  %23 = add nsw i32 %22, 128
  %24 = sext i32 %23 to i64
  %25 = getelementptr inbounds i32, ptr %21, i64 %24
  %26 = load i32, ptr %25, align 4, !tbaa !23
  %27 = add nsw i32 %20, %26
  %28 = load ptr, ptr %2, align 8, !tbaa !21
  %29 = load i32, ptr %3, align 4, !tbaa !23
  %30 = add nsw i32 %29, 192
  %31 = sext i32 %30 to i64
  %32 = getelementptr inbounds i32, ptr %28, i64 %31
  %33 = load i32, ptr %32, align 4, !tbaa !23
  %34 = add nsw i32 %27, %33
  %35 = load ptr, ptr %2, align 8, !tbaa !21
  %36 = load i32, ptr %3, align 4, !tbaa !23
  %37 = add nsw i32 %36, 256
  %38 = sext i32 %37 to i64
  %39 = getelementptr inbounds i32, ptr %35, i64 %38
  %40 = load i32, ptr %39, align 4, !tbaa !23
  %41 = add nsw i32 %34, %40
  store i32 %41, ptr %4, align 4, !tbaa !23
  %42 = load i32, ptr %4, align 4, !tbaa !23
  %43 = load ptr, ptr %2, align 8, !tbaa !21
  %44 = load i32, ptr %3, align 4, !tbaa !23
  %45 = sext i32 %44 to i64
  %46 = getelementptr inbounds i32, ptr %43, i64 %45
  store i32 %42, ptr %46, align 4, !tbaa !23
  call void @llvm.lifetime.end.p0(i64 4, ptr %4) #8
  br label %47

47:                                               ; preds = %8
  %48 = load i32, ptr %3, align 4, !tbaa !23
  %49 = add nsw i32 %48, 1
  store i32 %49, ptr %3, align 4, !tbaa !23
  br label %5, !llvm.loop !25

50:                                               ; preds = %5
  call void @llvm.lifetime.end.p0(i64 4, ptr %3) #8
  ret void
}