; Function Attrs: nofree norecurse nosync nounwind memory(argmem: readwrite) uwtable
define internal void @sbr_sum64x5_c(ptr noundef captures(none) %0) #1 {
  br label %2

2:                                                ; preds = %1, %2
  %indvars.iv = phi i64 [ 0, %1 ], [ %indvars.iv.next, %2 ]
  %3 = getelementptr inbounds nuw i32, ptr %0, i64 %indvars.iv
  %4 = load i32, ptr %3, align 4, !tbaa !19
  %5 = getelementptr inbounds nuw i8, ptr %3, i64 256
  %6 = load i32, ptr %5, align 4, !tbaa !19
  %7 = add nsw i32 %6, %4
  %8 = getelementptr inbounds nuw i8, ptr %3, i64 512
  %9 = load i32, ptr %8, align 4, !tbaa !19
  %10 = add nsw i32 %7, %9
  %11 = getelementptr inbounds nuw i8, ptr %3, i64 768
  %12 = load i32, ptr %11, align 4, !tbaa !19
  %13 = add nsw i32 %10, %12
  %14 = getelementptr inbounds nuw i8, ptr %3, i64 1024
  %15 = load i32, ptr %14, align 4, !tbaa !19
  %16 = add nsw i32 %13, %15
  store i32 %16, ptr %3, align 4, !tbaa !19
  %indvars.iv.next = add nuw nsw i64 %indvars.iv, 1
  %exitcond.not = icmp eq i64 %indvars.iv.next, 64
  br i1 %exitcond.not, label %17, label %2, !llvm.loop !21

17:                                               ; preds = %2
  ret void
}